; ModuleID = 'bench/openusd/original/cmds.cpp.ll'
source_filename = "bench/openusd/original/cmds.cpp.ll"
target datalayout = "e-m:e-p270:32:32-p271:32:32-p272:64:64-i64:64-i128:128-f80:128-n8:16:32:64-S128"
target triple = "x86_64-pc-linux-gnu"

@_ZTVN32pxrInternal_v0_24__pxrReserved__7HgiCmdsE = unnamed_addr constant { [5 x ptr] } { [5 x ptr] [ptr null, ptr @_ZTIN32pxrInternal_v0_24__pxrReserved__7HgiCmdsE, ptr @_ZN32pxrInternal_v0_24__pxrReserved__7HgiCmdsD1Ev, ptr @_ZN32pxrInternal_v0_24__pxrReserved__7HgiCmdsD0Ev, ptr @_ZN32pxrInternal_v0_24__pxrReserved__7HgiCmds7_SubmitEPNS_3HgiENS_17HgiSubmitWaitTypeE] }, align 8
@_ZTVN10__cxxabiv117__class_type_infoE = external global [0 x ptr]
@_ZTSN32pxrInternal_v0_24__pxrReserved__7HgiCmdsE = constant [45 x i8] c"N32pxrInternal_v0_24__pxrReserved__7HgiCmdsE\00", align 1
@_ZTIN32pxrInternal_v0_24__pxrReserved__7HgiCmdsE = constant { ptr, ptr } { ptr getelementptr inbounds (ptr, ptr @_ZTVN10__cxxabiv117__class_type_infoE, i64 2), ptr @_ZTSN32pxrInternal_v0_24__pxrReserved__7HgiCmdsE }, align 8

@_ZN32pxrInternal_v0_24__pxrReserved__7HgiCmdsC1Ev = unnamed_addr alias void (ptr), ptr @_ZN32pxrInternal_v0_24__pxrReserved__7HgiCmdsC2Ev
@_ZN32pxrInternal_v0_24__pxrReserved__7HgiCmdsD1Ev = unnamed_addr alias void (ptr), ptr @_ZN32pxrInternal_v0_24__pxrReserved__7HgiCmdsD2Ev

; Function Attrs: mustprogress nofree norecurse nosync nounwind willreturn memory(argmem: write) uwtable
define void @_ZN32pxrInternal_v0_24__pxrReserved__7HgiCmdsC2Ev(ptr nocapture noundef nonnull writeonly align 8 dereferenceable(9) %0) unnamed_addr #0 align 2 {
  store ptr getelementptr inbounds inrange(-16, 24) (i8, ptr @_ZTVN32pxrInternal_v0_24__pxrReserved__7HgiCmdsE, i64 16), ptr %0, align 8
  %2 = getelementptr inbounds nuw i8, ptr %0, i64 8
  store i8 0, ptr %2, align 8
  ret void
}

; Function Attrs: mustprogress nofree norecurse nosync nounwind willreturn memory(none) uwtable
define void @_ZN32pxrInternal_v0_24__pxrReserved__7HgiCmdsD2Ev(ptr nocapture nonnull readnone align 8 %0) unnamed_addr #1 align 2 {
  ret void
}

; Function Attrs: mustprogress nounwind uwtable
define void @_ZN32pxrInternal_v0_24__pxrReserved__7HgiCmdsD0Ev(ptr noundef nonnull align 8 dereferenceable(9) %0) unnamed_addr #2 align 2 {
  tail call void @_ZN32pxrInternal_v0_24__pxrReserved__7HgiCmdsD1Ev(ptr noundef nonnull align 8 dereferenceable(9) %0) #5
  tail call void @_ZdlPvm(ptr noundef nonnull %0, i64 noundef 16) #6
  ret void
}

; Function Attrs: nobuiltin nounwind
declare void @_ZdlPvm(ptr noundef, i64 noundef) local_unnamed_addr #3

; Function Attrs: mustprogress nofree norecurse nosync nounwind willreturn memory(argmem: read) uwtable
define noundef zeroext i1 @_ZNK32pxrInternal_v0_24__pxrReserved__7HgiCmds11IsSubmittedEv(ptr nocapture noundef nonnull readonly align 8 dereferenceable(9) %0) local_unnamed_addr #4 align 2 {
  %2 = getelementptr inbounds nuw i8, ptr %0, i64 8
  %3 = load i8, ptr %2, align 8
  %4 = trunc i8 %3 to i1
  ret i1 %4
}

; Function Attrs: mustprogress nofree norecurse nosync nounwind willreturn memory(none) uwtable
define noundef zeroext i1 @_ZN32pxrInternal_v0_24__pxrReserved__7HgiCmds7_SubmitEPNS_3HgiENS_17HgiSubmitWaitTypeE(ptr nocapture nonnull readnone align 8 %0, ptr nocapture readnone %1, i32 %2) unnamed_addr #1 align 2 {
  ret i1 false
}

; Function Attrs: mustprogress nofree norecurse nosync nounwind willreturn memory(argmem: write) uwtable
define void @_ZN32pxrInternal_v0_24__pxrReserved__7HgiCmds13_SetSubmittedEv(ptr nocapture noundef nonnull writeonly align 8 dereferenceable(9) %0) local_unnamed_addr #0 align 2 {
  %2 = getelementptr inbounds nuw i8, ptr %0, i64 8
  store i8 1, ptr %2, align 8
  ret void
}


!llvm.module.flags = !{!0, !1, !2, !3}

!0 = !{i32 1, !"wchar_size", i32 4}
!1 = !{i32 8, !"PIC Level", i32 2}
!2 = !{i32 7, !"uwtable", i32 2}
!3 = !{i32 7, !"frame-pointer", i32 2}
